; Function Attrs: nounwind sspstrong uwtable
define internal i64 @io_buffer_each_byte(i32 noundef %0, ptr noundef %1, i64 noundef %2) #0 {
  %4 = alloca i64, align 8
  %5 = alloca i64, align 8
  %6 = tail call i32 @rb_block_given_p() #25
  %.not = icmp eq i32 %6, 0
  br i1 %.not, label %7, label %11

7:                                                ; preds = %3
  %8 = tail call i64 @rb_frame_this_func() #25
  %9 = tail call i64 @rb_id2sym(i64 noundef %8) #25
  %10 = tail call i64 @rb_enumeratorize_with_size_kw(i64 noundef %2, i64 noundef %9, i32 noundef %0, ptr noundef %1, ptr noundef null, i32 noundef 0) #25
  br label %37

11:                                               ; preds = %3
  %12 = tail call ptr @rb_check_typeddata(i64 noundef %2, ptr noundef nonnull @rb_io_buffer_type) #25
  %13 = getelementptr inbounds nuw i8, ptr %12, i64 24
  %14 = load i64, ptr %13, align 8, !tbaa !7
  %.not.i.i.i = icmp eq i64 %14, 4
  br i1 %.not.i.i.i, label %io_buffer_validate.exit.thread.i.i, label %io_buffer_validate.exit.i.i

io_buffer_validate.exit.i.i:                      ; preds = %11
  %15 = load ptr, ptr %12, align 8, !tbaa !14
  %16 = getelementptr inbounds nuw i8, ptr %12, i64 8
  %17 = load i64, ptr %16, align 8, !tbaa !16
  %18 = tail call fastcc i32 @io_buffer_validate_slice(i64 noundef %14, ptr noundef %15, i64 noundef %17)
  %.not.i.i = icmp eq i32 %18, 0
  br i1 %.not.i.i, label %19, label %io_buffer_validate.exit.thread.i.i

19:                                               ; preds = %io_buffer_validate.exit.i.i
  %20 = load i64, ptr @rb_eIOBufferInvalidatedError, align 8, !tbaa !22
  tail call void (i64, ptr, ...) @rb_raise(i64 noundef %20, ptr noundef nonnull @.str.119) #26
  unreachable

io_buffer_validate.exit.thread.i.i:               ; preds = %io_buffer_validate.exit.i.i, %11
  %21 = load ptr, ptr %12, align 8, !tbaa !14
  %.not8.i.i = icmp eq ptr %21, null
  br i1 %.not8.i.i, label %rb_io_buffer_get_bytes_for_reading.exit, label %22

22:                                               ; preds = %io_buffer_validate.exit.thread.i.i
  %23 = getelementptr inbounds nuw i8, ptr %12, i64 8
  %24 = load i64, ptr %23, align 8, !tbaa !16
  br label %rb_io_buffer_get_bytes_for_reading.exit

rb_io_buffer_get_bytes_for_reading.exit:          ; preds = %io_buffer_validate.exit.thread.i.i, %22
  %storemerge.i.i = phi i64 [ %24, %22 ], [ 0, %io_buffer_validate.exit.thread.i.i ]
  call void @llvm.lifetime.start.p0(i64 8, ptr nonnull %4) #25
  call void @llvm.lifetime.start.p0(i64 8, ptr nonnull %5) #25
  %25 = load i64, ptr @RB_IO_BUFFER_DATA_TYPE_U8, align 8, !tbaa !22
  %26 = add i32 %0, -1
  %27 = getelementptr i8, ptr %1, i64 8
  call fastcc void @io_buffer_extract_offset_count(i64 noundef %25, i64 noundef %storemerge.i.i, i32 noundef %26, ptr noundef %27, ptr noundef %4, ptr noundef %5)
  %28 = load i64, ptr %5, align 8, !tbaa !22
  %.not13 = icmp eq i64 %28, 0
  br i1 %.not13, label %._crit_edge, label %.lr.ph

.lr.ph:                                           ; preds = %rb_io_buffer_get_bytes_for_reading.exit
  %29 = load i64, ptr %4, align 8, !tbaa !22
  %invariant.gep = getelementptr i8, ptr %21, i64 %29
  br label %30

._crit_edge:                                      ; preds = %30, %rb_io_buffer_get_bytes_for_reading.exit
  call void @llvm.lifetime.end.p0(i64 8, ptr nonnull %5) #25
  call void @llvm.lifetime.end.p0(i64 8, ptr nonnull %4) #25
  br label %37

30:                                               ; preds = %.lr.ph, %30
  %.01112 = phi i64 [ 0, %.lr.ph ], [ %36, %30 ]
  %gep = getelementptr i8, ptr %invariant.gep, i64 %.01112
  %31 = load i8, ptr %gep, align 1, !tbaa !36
  %32 = zext i8 %31 to i64
  %33 = shl nuw nsw i64 %32, 1
  %34 = or disjoint i64 %33, 1
  %35 = tail call i64 @rb_yield(i64 noundef %34) #25
  %36 = add nuw i64 %.01112, 1
  %exitcond.not = icmp eq i64 %36, %28
  br i1 %exitcond.not, label %._crit_edge, label %30, !llvm.loop !81

37:                                               ; preds = %._crit_edge, %7
  %.0 = phi i64 [ %2, %._crit_edge ], [ %10, %7 ]
  ret i64 %.0
}